target datalayout = "e-m:e-p270:32:32-p271:32:32-p272:64:64-i64:64-i128:128-f80:128-n8:16:32:64-S128"
target triple = "x86_64-pc-linux-gnu"

%struct.pg_compress_specification = type { i32, i32, i32, i32, i8, ptr }
%struct._archiveHandle = type { %struct.Archive, i32, ptr, ptr, i64, i64, i32, %struct.sqlparseInfo, i64, i32, ptr, i64, i64, i64, ptr, ptr, ptr, ptr, ptr, ptr, ptr, ptr, ptr, ptr, ptr, ptr, ptr, ptr, ptr, ptr, ptr, ptr, ptr, ptr, ptr, ptr, ptr, ptr, ptr, ptr, ptr, ptr, ptr, ptr, i32, i32, i8, i32, i8, i32, ptr, ptr, ptr, ptr, i32, i32, ptr, ptr, ptr, %struct.pg_compress_specification, i8, i32, i32, ptr, ptr, ptr, ptr, ptr, i32, ptr, i64, i64, i32, i32, i32, i32, ptr, ptr }
%struct.Archive = type { ptr, ptr, i32, ptr, i32, i8, i32, i32, i32, ptr, i32, i8, ptr, ptr, i8, i32, ptr }
%struct.sqlparseInfo = type { i32, i8, ptr }
%struct._tocEntry = type { ptr, ptr, %struct.CatalogId, i32, i32, i8, ptr, ptr, ptr, ptr, i8, ptr, ptr, ptr, ptr, ptr, ptr, i32, ptr, ptr, ptr, i64, i32, i8, ptr, ptr, i32, ptr, i32, ptr, i32 }
%struct.CatalogId = type { i32, i32 }

@.str.184 = private unnamed_addr constant [59 x i8] c"table \22%s\22 could not be created, will not restore its data\00", align 1
@.str.226 = private unnamed_addr constant [23 x i8] c"finished item %d %s %s\00", align 1
@.str.227 = private unnamed_addr constant [36 x i8] c"worker process failed: exit code %d\00", align 1

; Function Attrs: nounwind uwtable
define internal void @inhibit_data_for_failed_table(ptr noundef %0, ptr noundef %1) #0 {
  %3 = alloca ptr, align 8
  %4 = alloca ptr, align 8
  %5 = alloca ptr, align 8
  store ptr %0, ptr %3, align 8
  store ptr %1, ptr %4, align 8
  %6 = load ptr, ptr %4, align 8
  %7 = getelementptr inbounds nuw %struct._tocEntry, ptr %6, i32 0, i32 6
  %8 = load ptr, ptr %7, align 8
  call void (i32, i32, ptr, ...) @pg_log_generic(i32 noundef 2, i32 noundef 0, ptr noundef @.str.184, ptr noundef %8)
  %9 = load ptr, ptr %3, align 8
  %10 = getelementptr inbounds nuw %struct._archiveHandle, ptr %9, i32 0, i32 57
  %11 = load ptr, ptr %10, align 8
  %12 = load ptr, ptr %4, align 8
  %13 = getelementptr inbounds nuw %struct._tocEntry, ptr %12, i32 0, i32 3
  %14 = load i32, ptr %13, align 8
  %15 = sext i32 %14 to i64
  %16 = getelementptr inbounds i32, ptr %11, i64 %15
  %17 = load i32, ptr %16, align 4
  %18 = icmp ne i32 %17, 0
  br i1 %18, label %19, label %37

19:                                               ; preds = %2
  call void @llvm.lifetime.start.p0(i64 8, ptr %5) #11
  %20 = load ptr, ptr %3, align 8
  %21 = getelementptr inbounds nuw %struct._archiveHandle, ptr %20, i32 0, i32 56
  %22 = load ptr, ptr %21, align 8
  %23 = load ptr, ptr %3, align 8
  %24 = getelementptr inbounds nuw %struct._archiveHandle, ptr %23, i32 0, i32 57
  %25 = load ptr, ptr %24, align 8
  %26 = load ptr, ptr %4, align 8
  %27 = getelementptr inbounds nuw %struct._tocEntry, ptr %26, i32 0, i32 3
  %28 = load i32, ptr %27, align 8
  %29 = sext i32 %28 to i64
  %30 = getelementptr inbounds i32, ptr %25, i64 %29
  %31 = load i32, ptr %30, align 4
  %32 = sext i32 %31 to i64
  %33 = getelementptr inbounds ptr, ptr %22, i64 %32
  %34 = load ptr, ptr %33, align 8
  store ptr %34, ptr %5, align 8
  %35 = load ptr, ptr %5, align 8
  %36 = getelementptr inbounds nuw %struct._tocEntry, ptr %35, i32 0, i32 22
  store i32 0, ptr %36, align 8
  call void @llvm.lifetime.end.p0(i64 8, ptr %5) #11
  br label %37

37:                                               ; preds = %19, %2
  ret void
}

; Function Attrs: nounwind uwtable
define internal void @mark_create_done(ptr noundef %0, ptr noundef %1) #0 {
  %3 = alloca ptr, align 8
  %4 = alloca ptr, align 8
  %5 = alloca ptr, align 8
  store ptr %0, ptr %3, align 8
  store ptr %1, ptr %4, align 8
  %6 = load ptr, ptr %3, align 8
  %7 = getelementptr inbounds nuw %struct._archiveHandle, ptr %6, i32 0, i32 57
  %8 = load ptr, ptr %7, align 8
  %9 = load ptr, ptr %4, align 8
  %10 = getelementptr inbounds nuw %struct._tocEntry, ptr %9, i32 0, i32 3
  %11 = load i32, ptr %10, align 8
  %12 = sext i32 %11 to i64
  %13 = getelementptr inbounds i32, ptr %8, i64 %12
  %14 = load i32, ptr %13, align 4
  %15 = icmp ne i32 %14, 0
  br i1 %15, label %16, label %34

16:                                               ; preds = %2
  call void @llvm.lifetime.start.p0(i64 8, ptr %5) #11
  %17 = load ptr, ptr %3, align 8
  %18 = getelementptr inbounds nuw %struct._archiveHandle, ptr %17, i32 0, i32 56
  %19 = load ptr, ptr %18, align 8
  %20 = load ptr, ptr %3, align 8
  %21 = getelementptr inbounds nuw %struct._archiveHandle, ptr %20, i32 0, i32 57
  %22 = load ptr, ptr %21, align 8
  %23 = load ptr, ptr %4, align 8
  %24 = getelementptr inbounds nuw %struct._tocEntry, ptr %23, i32 0, i32 3
  %25 = load i32, ptr %24, align 8
  %26 = sext i32 %25 to i64
  %27 = getelementptr inbounds i32, ptr %22, i64 %26
  %28 = load i32, ptr %27, align 4
  %29 = sext i32 %28 to i64
  %30 = getelementptr inbounds ptr, ptr %19, i64 %29
  %31 = load ptr, ptr %30, align 8
  store ptr %31, ptr %5, align 8
  %32 = load ptr, ptr %5, align 8
  %33 = getelementptr inbounds nuw %struct._tocEntry, ptr %32, i32 0, i32 23
  store i8 1, ptr %33, align 4
  call void @llvm.lifetime.end.p0(i64 8, ptr %5) #11
  br label %34

34:                                               ; preds = %16, %2
  ret void
}

; Function Attrs: nounwind uwtable
define internal void @mark_restore_job_done(ptr noundef %0, ptr noundef %1, i32 noundef %2, ptr noundef %3) #0 {
  %5 = alloca ptr, align 8
  %6 = alloca ptr, align 8
  %7 = alloca i32, align 4
  %8 = alloca ptr, align 8
  %9 = alloca ptr, align 8
  store ptr %0, ptr %5, align 8
  store ptr %1, ptr %6, align 8
  store i32 %2, ptr %7, align 4
  store ptr %3, ptr %8, align 8
  call void @llvm.lifetime.start.p0(i64 8, ptr %9) #11
  %10 = load ptr, ptr %8, align 8
  store ptr %10, ptr %9, align 8
  %11 = load ptr, ptr %6, align 8
  %12 = getelementptr inbounds nuw %struct._tocEntry, ptr %11, i32 0, i32 3
  %13 = load i32, ptr %12, align 8
  %14 = load ptr, ptr %6, align 8
  %15 = getelementptr inbounds nuw %struct._tocEntry, ptr %14, i32 0, i32 12
  %16 = load ptr, ptr %15, align 8
  %17 = load ptr, ptr %6, align 8
  %18 = getelementptr inbounds nuw %struct._tocEntry, ptr %17, i32 0, i32 6
  %19 = load ptr, ptr %18, align 8
  call void (i32, i32, ptr, ...) @pg_log_generic(i32 noundef 2, i32 noundef 0, ptr noundef @.str.226, i32 noundef %13, ptr noundef %16, ptr noundef %19)
  %20 = load i32, ptr %7, align 4
  %21 = icmp eq i32 %20, 10
  br i1 %21, label %22, label %25

22:                                               ; preds = %4
  %23 = load ptr, ptr %5, align 8
  %24 = load ptr, ptr %6, align 8
  call void @mark_create_done(ptr noundef %23, ptr noundef %24)
  br label %56

25:                                               ; preds = %4
  %26 = load i32, ptr %7, align 4
  %27 = icmp eq i32 %26, 11
  br i1 %27, label %28, label %36

28:                                               ; preds = %25
  %29 = load ptr, ptr %5, align 8
  %30 = load ptr, ptr %6, align 8
  call void @inhibit_data_for_failed_table(ptr noundef %29, ptr noundef %30)
  %31 = load ptr, ptr %5, align 8
  %32 = getelementptr inbounds nuw %struct._archiveHandle, ptr %31, i32 0, i32 0
  %33 = getelementptr inbounds nuw %struct.Archive, ptr %32, i32 0, i32 15
  %34 = load i32, ptr %33, align 4
  %35 = add i32 %34, 1
  store i32 %35, ptr %33, align 4
  br label %55

36:                                               ; preds = %25
  %37 = load i32, ptr %7, align 4
  %38 = icmp eq i32 %37, 12
  br i1 %38, label %39, label %45

39:                                               ; preds = %36
  %40 = load ptr, ptr %5, align 8
  %41 = getelementptr inbounds nuw %struct._archiveHandle, ptr %40, i32 0, i32 0
  %42 = getelementptr inbounds nuw %struct.Archive, ptr %41, i32 0, i32 15
  %43 = load i32, ptr %42, align 4
  %44 = add i32 %43, 1
  store i32 %44, ptr %42, align 4
  br label %54

45:                                               ; preds = %36
  %46 = load i32, ptr %7, align 4
  %47 = icmp ne i32 %46, 0
  br i1 %47, label %48, label %53

48:                                               ; preds = %45
  br label %49

49:                                               ; preds = %48
  %50 = load i32, ptr %7, align 4
  call void (i32, i32, ptr, ...) @pg_log_generic(i32 noundef 4, i32 noundef 0, ptr noundef @.str.227, i32 noundef %50)
  call void @exit_nicely(i32 noundef 1) #12
  unreachable

51:                                               ; No predecessors!
  br label %52

52:                                               ; preds = %51
  br label %53

53:                                               ; preds = %52, %45
  br label %54

54:                                               ; preds = %53, %39
  br label %55

55:                                               ; preds = %54, %28
  br label %56

56:                                               ; preds = %55, %22
  %57 = load ptr, ptr %5, align 8
  %58 = load ptr, ptr %6, align 8
  %59 = load ptr, ptr %9, align 8
  call void @reduce_dependencies(ptr noundef %57, ptr noundef %58, ptr noundef %59)
  call void @llvm.lifetime.end.p0(i64 8, ptr %9) #11
  ret void
}