; Function Attrs: nounwind uwtable
define internal void @mark_restore_job_done(ptr noundef captures(none) %0, ptr noundef readonly captures(none) %1, i32 noundef %2, ptr noundef %3) #0 {
  %5 = getelementptr inbounds nuw i8, ptr %1, i64 24
  %6 = load i32, ptr %5, align 8
  %7 = getelementptr inbounds nuw i8, ptr %1, i64 88
  %8 = load ptr, ptr %7, align 8
  %9 = getelementptr inbounds nuw i8, ptr %1, i64 40
  %10 = load ptr, ptr %9, align 8
  tail call void (i32, i32, ptr, ...) @pg_log_generic(i32 noundef 2, i32 noundef 0, ptr noundef nonnull @.str.226, i32 noundef %6, ptr noundef %8, ptr noundef %10) #22
  switch i32 %2, label %46 [
    i32 10, label %11
    i32 11, label %24
    i32 12, label %42
    i32 0, label %mark_create_done.exit
  ]

11:                                               ; preds = %4
  %.val = load i32, ptr %5, align 8
  %12 = getelementptr inbounds nuw i8, ptr %0, i64 528
  %13 = load ptr, ptr %12, align 8
  %14 = sext i32 %.val to i64
  %15 = getelementptr inbounds i32, ptr %13, i64 %14
  %16 = load i32, ptr %15, align 4
  %.not.i = icmp eq i32 %16, 0
  br i1 %.not.i, label %mark_create_done.exit, label %17

17:                                               ; preds = %11
  %18 = getelementptr inbounds nuw i8, ptr %0, i64 520
  %19 = load ptr, ptr %18, align 8
  %20 = sext i32 %16 to i64
  %21 = getelementptr inbounds ptr, ptr %19, i64 %20
  %22 = load ptr, ptr %21, align 8
  %23 = getelementptr inbounds nuw i8, ptr %22, i64 172
  store i8 1, ptr %23, align 4
  br label %mark_create_done.exit

24:                                               ; preds = %4
  %25 = load ptr, ptr %9, align 8
  tail call void (i32, i32, ptr, ...) @pg_log_generic(i32 noundef 2, i32 noundef 0, ptr noundef nonnull @.str.184, ptr noundef %25) #22
  %26 = getelementptr inbounds nuw i8, ptr %0, i64 528
  %27 = load ptr, ptr %26, align 8
  %28 = load i32, ptr %5, align 8
  %29 = sext i32 %28 to i64
  %30 = getelementptr inbounds i32, ptr %27, i64 %29
  %31 = load i32, ptr %30, align 4
  %.not.i17 = icmp eq i32 %31, 0
  br i1 %.not.i17, label %inhibit_data_for_failed_table.exit, label %32

32:                                               ; preds = %24
  %33 = getelementptr inbounds nuw i8, ptr %0, i64 520
  %34 = load ptr, ptr %33, align 8
  %35 = sext i32 %31 to i64
  %36 = getelementptr inbounds ptr, ptr %34, i64 %35
  %37 = load ptr, ptr %36, align 8
  %38 = getelementptr inbounds nuw i8, ptr %37, i64 168
  store i32 0, ptr %38, align 8
  br label %inhibit_data_for_failed_table.exit

inhibit_data_for_failed_table.exit:               ; preds = %24, %32
  %39 = getelementptr inbounds nuw i8, ptr %0, i64 92
  %40 = load i32, ptr %39, align 4
  %41 = add i32 %40, 1
  store i32 %41, ptr %39, align 4
  br label %mark_create_done.exit

42:                                               ; preds = %4
  %43 = getelementptr inbounds nuw i8, ptr %0, i64 92
  %44 = load i32, ptr %43, align 4
  %45 = add i32 %44, 1
  store i32 %45, ptr %43, align 4
  br label %mark_create_done.exit

46:                                               ; preds = %4
  tail call void (i32, i32, ptr, ...) @pg_log_generic(i32 noundef 4, i32 noundef 0, ptr noundef nonnull @.str.227, i32 noundef %2) #22
  tail call void @exit_nicely(i32 noundef 1) #23
  unreachable

mark_create_done.exit:                            ; preds = %17, %11, %4, %inhibit_data_for_failed_table.exit, %42
  tail call fastcc void @reduce_dependencies(ptr noundef %0, ptr noundef nonnull %1, ptr noundef %3)
  ret void
}